target datalayout = "e-m:e-p270:32:32-p271:32:32-p272:64:64-i64:64-i128:128-f80:128-n8:16:32:64-S128"
target triple = "x86_64-pc-linux-gnu"

%"class.cv::Vec.2" = type { %"class.cv::Matx.3" }
%"class.cv::Matx.3" = type { [2 x double] }

; Function Attrs: mustprogress nounwind uwtable
define linkonce_odr hidden noundef nonnull align 8 dereferenceable(8) ptr @_ZNK2cv3VecIdLi2EEixEi(ptr noundef nonnull align 8 dereferenceable(16) %0, i32 noundef %1) #4 comdat align 2 {
  %3 = alloca ptr, align 8
  %4 = alloca i32, align 4
  store ptr %0, ptr %3, align 8
  store i32 %1, ptr %4, align 4
  %5 = load ptr, ptr %3, align 8
  %6 = getelementptr inbounds %"class.cv::Matx.3", ptr %5, i32 0, i32 0
  %7 = load i32, ptr %4, align 4
  %8 = sext i32 %7 to i64
  %9 = getelementptr inbounds [2 x double], ptr %6, i64 0, i64 %8
  ret ptr %9
}

; Function Attrs: mustprogress uwtable
define internal void @_ZN2cvL9randf_64fEPdiPmPKNS_3VecIdLi2EEEPvb(ptr noundef %0, i32 noundef %1, ptr noundef %2, ptr noundef %3, ptr noundef %4, i1 noundef zeroext %5) #0 {
  %7 = alloca ptr, align 8
  %8 = alloca i32, align 4
  %9 = alloca ptr, align 8
  %10 = alloca ptr, align 8
  %11 = alloca ptr, align 8
  %12 = alloca i8, align 1
  %13 = alloca i64, align 8
  %14 = alloca i32, align 4
  %15 = alloca i64, align 8
  store ptr %0, ptr %7, align 8
  store i32 %1, ptr %8, align 4
  store ptr %2, ptr %9, align 8
  store ptr %3, ptr %10, align 8
  store ptr %4, ptr %11, align 8
  %16 = zext i1 %5 to i8
  store i8 %16, ptr %12, align 1
  %17 = load ptr, ptr %9, align 8
  %18 = load i64, ptr %17, align 8
  store i64 %18, ptr %13, align 8
  store i32 0, ptr %14, align 4
  br label %19

19:                                               ; preds = %49, %6
  %20 = load i32, ptr %14, align 4
  %21 = load i32, ptr %8, align 4
  %22 = icmp slt i32 %20, %21
  br i1 %22, label %23, label %52

23:                                               ; preds = %19
  %24 = load i64, ptr %13, align 8
  %25 = trunc i64 %24 to i32
  %26 = zext i32 %25 to i64
  %27 = mul i64 %26, 4164903690
  %28 = load i64, ptr %13, align 8
  %29 = lshr i64 %28, 32
  %30 = add i64 %27, %29
  store i64 %30, ptr %13, align 8
  %31 = load i64, ptr %13, align 8
  %32 = lshr i64 %31, 32
  %33 = load i64, ptr %13, align 8
  %34 = shl i64 %33, 32
  %35 = or i64 %32, %34
  store i64 %35, ptr %15, align 8
  %36 = load i64, ptr %15, align 8
  %37 = sitofp i64 %36 to double
  %38 = load ptr, ptr %10, align 8
  %39 = load i32, ptr %14, align 4
  %40 = sext i32 %39 to i64
  %41 = getelementptr inbounds %"class.cv::Vec.2", ptr %38, i64 %40
  %42 = call noundef nonnull align 8 dereferenceable(8) ptr @_ZNK2cv3VecIdLi2EEixEi(ptr noundef nonnull align 8 dereferenceable(16) %41, i32 noundef 0)
  %43 = load double, ptr %42, align 8
  %44 = fmul double %37, %43
  %45 = load ptr, ptr %7, align 8
  %46 = load i32, ptr %14, align 4
  %47 = sext i32 %46 to i64
  %48 = getelementptr inbounds double, ptr %45, i64 %47
  store double %44, ptr %48, align 8
  br label %49

49:                                               ; preds = %23
  %50 = load i32, ptr %14, align 4
  %51 = add nsw i32 %50, 1
  store i32 %51, ptr %14, align 4
  br label %19, !llvm.loop !62

52:                                               ; preds = %19
  %53 = load i64, ptr %13, align 8
  %54 = load ptr, ptr %9, align 8
  store i64 %53, ptr %54, align 8
  %55 = load ptr, ptr %7, align 8
  %56 = load ptr, ptr %10, align 8
  %57 = getelementptr inbounds %"class.cv::Vec.2", ptr %56, i64 0
  %58 = call noundef nonnull align 8 dereferenceable(8) ptr @_ZNK2cv3VecIdLi2EEixEi(ptr noundef nonnull align 8 dereferenceable(16) %57, i32 noundef 0)
  %59 = load i32, ptr %8, align 4
  call void @_ZN2cv3hal13addRNGBias64fEPdPKdi(ptr noundef %55, ptr noundef %58, i32 noundef %59)
  ret void
}