; Function Attrs: mustprogress uwtable
define internal void @_ZN2cvL9randf_64fEPdiPmPKNS_3VecIdLi2EEEPvb(ptr noundef %0, i32 noundef %1, ptr nocapture noundef %2, ptr noundef %3, ptr nocapture readnone %4, i1 zeroext %5) #1 {
  %7 = load i64, ptr %2, align 8
  %8 = icmp sgt i32 %1, 0
  br i1 %8, label %.lr.ph.preheader, label %._crit_edge

.lr.ph.preheader:                                 ; preds = %6
  %wide.trip.count = zext nneg i32 %1 to i64
  br label %.lr.ph

.lr.ph:                                           ; preds = %.lr.ph.preheader, %.lr.ph
  %indvars.iv = phi i64 [ 0, %.lr.ph.preheader ], [ %indvars.iv.next, %.lr.ph ]
  %.020 = phi i64 [ %7, %.lr.ph.preheader ], [ %12, %.lr.ph ]
  %9 = and i64 %.020, 4294967295
  %10 = mul nuw i64 %9, 4164903690
  %11 = lshr i64 %.020, 32
  %12 = add nuw i64 %10, %11
  %13 = tail call i64 @llvm.fshl.i64(i64 %12, i64 %12, i64 32)
  %14 = sitofp i64 %13 to double
  %15 = getelementptr inbounds %"class.cv::Vec.2", ptr %3, i64 %indvars.iv
  %16 = load double, ptr %15, align 8
  %17 = fmul double %16, %14
  %18 = getelementptr inbounds double, ptr %0, i64 %indvars.iv
  store double %17, ptr %18, align 8
  %indvars.iv.next = add nuw nsw i64 %indvars.iv, 1
  %exitcond.not = icmp eq i64 %indvars.iv.next, %wide.trip.count
  br i1 %exitcond.not, label %._crit_edge, label %.lr.ph, !llvm.loop !85

._crit_edge:                                      ; preds = %.lr.ph, %6
  %.0.lcssa = phi i64 [ %7, %6 ], [ %12, %.lr.ph ]
  store i64 %.0.lcssa, ptr %2, align 8
  tail call void @_ZN2cv3hal13addRNGBias64fEPdPKdi(ptr noundef %0, ptr noundef nonnull %3, i32 noundef %1)
  ret void
}